target datalayout = "e-m:e-p270:32:32-p271:32:32-p272:64:64-i64:64-i128:128-f80:128-n8:16:32:64-S128"
target triple = "x86_64-pc-linux-gnu"

@.str.17 = private unnamed_addr constant [5 x i8] c"open\00", align 1
@.str.18 = private unnamed_addr constant [5 x i8] c"init\00", align 1

; Function Attrs: nounwind uwtable
define internal i32 @ll_loadlib(ptr noundef %0) #0 {
  %2 = alloca i32, align 4
  %3 = alloca ptr, align 8
  %4 = alloca ptr, align 8
  %5 = alloca ptr, align 8
  %6 = alloca i32, align 4
  %7 = alloca i32, align 4
  store ptr %0, ptr %3, align 8, !tbaa !4
  call void @llvm.lifetime.start.p0(i64 8, ptr %4) #6
  %8 = load ptr, ptr %3, align 8, !tbaa !4
  %9 = call ptr @luaL_checklstring(ptr noundef %8, i32 noundef 1, ptr noundef null)
  store ptr %9, ptr %4, align 8, !tbaa !12
  call void @llvm.lifetime.start.p0(i64 8, ptr %5) #6
  %10 = load ptr, ptr %3, align 8, !tbaa !4
  %11 = call ptr @luaL_checklstring(ptr noundef %10, i32 noundef 2, ptr noundef null)
  store ptr %11, ptr %5, align 8, !tbaa !12
  call void @llvm.lifetime.start.p0(i64 4, ptr %6) #6
  %12 = load ptr, ptr %3, align 8, !tbaa !4
  %13 = load ptr, ptr %4, align 8, !tbaa !12
  %14 = load ptr, ptr %5, align 8, !tbaa !12
  %15 = call i32 @lookforfunc(ptr noundef %12, ptr noundef %13, ptr noundef %14)
  store i32 %15, ptr %6, align 4, !tbaa !9
  %16 = load i32, ptr %6, align 4, !tbaa !9
  %17 = icmp eq i32 %16, 0
  %18 = zext i1 %17 to i32
  %19 = icmp ne i32 %18, 0
  %20 = zext i1 %19 to i32
  %21 = sext i32 %20 to i64
  %22 = call i64 @llvm.expect.i64(i64 %21, i64 1)
  %23 = icmp ne i64 %22, 0
  br i1 %23, label %24, label %25

24:                                               ; preds = %1
  store i32 1, ptr %2, align 4
  store i32 1, ptr %7, align 4
  br label %33

25:                                               ; preds = %1
  %26 = load ptr, ptr %3, align 8, !tbaa !4
  call void @lua_pushnil(ptr noundef %26)
  %27 = load ptr, ptr %3, align 8, !tbaa !4
  call void @lua_rotate(ptr noundef %27, i32 noundef -2, i32 noundef 1)
  %28 = load ptr, ptr %3, align 8, !tbaa !4
  %29 = load i32, ptr %6, align 4, !tbaa !9
  %30 = icmp eq i32 %29, 1
  %31 = select i1 %30, ptr @.str.17, ptr @.str.18
  %32 = call ptr @lua_pushstring(ptr noundef %28, ptr noundef %31)
  store i32 3, ptr %2, align 4
  store i32 1, ptr %7, align 4
  br label %33

33:                                               ; preds = %25, %24
  call void @llvm.lifetime.end.p0(i64 4, ptr %6) #6
  call void @llvm.lifetime.end.p0(i64 8, ptr %5) #6
  call void @llvm.lifetime.end.p0(i64 8, ptr %4) #6
  %34 = load i32, ptr %2, align 4
  ret i32 %34
}