; Function Attrs: nounwind uwtable
define internal range(i32 1, 4) i32 @ll_loadlib(ptr noundef %0) #0 {
  %2 = tail call ptr @luaL_checklstring(ptr noundef %0, i32 noundef 1, ptr noundef null) #7
  %3 = tail call ptr @luaL_checklstring(ptr noundef %0, i32 noundef 2, ptr noundef null) #7
  %4 = tail call fastcc i32 @lookforfunc(ptr noundef %0, ptr noundef %2, ptr noundef %3)
  %5 = icmp eq i32 %4, 0
  br i1 %5, label %10, label %6, !prof !16

6:                                                ; preds = %1
  tail call void @lua_pushnil(ptr noundef %0) #7
  tail call void @lua_rotate(ptr noundef %0, i32 noundef -2, i32 noundef 1) #7
  %7 = icmp eq i32 %4, 1
  %8 = select i1 %7, ptr @.str.17, ptr @.str.18
  %9 = tail call ptr @lua_pushstring(ptr noundef %0, ptr noundef nonnull %8) #7
  br label %10

10:                                               ; preds = %1, %6
  %.0 = phi i32 [ 3, %6 ], [ 1, %1 ]
  ret i32 %.0
}